target datalayout = "e-m:e-p270:32:32-p271:32:32-p272:64:64-i64:64-i128:128-f80:128-n8:16:32:64-S128"
target triple = "x86_64-pc-linux-gnu"

%"class.std::__shared_count" = type { ptr }
%"struct.std::_Head_base.139" = type { ptr }
%"class.testing::internal::ParamGenerator.403" = type { %"class.std::shared_ptr.404" }
%"class.std::shared_ptr.404" = type { %"class.std::__shared_ptr.405" }
%"class.std::__shared_ptr.405" = type { ptr, %"class.std::__shared_count" }
%"class.testing::internal::ValueArray.613" = type { %"class.testing::internal::FlatTuple.614" }
%"class.testing::internal::FlatTuple.614" = type { %"struct.testing::internal::FlatTupleBase.615" }
%"struct.testing::internal::FlatTupleBase.615" = type { %"struct.testing::internal::FlatTupleElemBase.616", %"struct.testing::internal::FlatTupleElemBase.623" }
%"struct.testing::internal::FlatTupleElemBase.616" = type { %"class.std::tuple.617" }
%"class.std::tuple.617" = type { %"struct.std::_Tuple_impl.618" }
%"struct.std::_Tuple_impl.618" = type { %"struct.std::_Tuple_impl.619", %"struct.std::_Head_base.139" }
%"struct.std::_Tuple_impl.619" = type { %"struct.std::_Tuple_impl.620", %"struct.std::_Head_base.622" }
%"struct.std::_Tuple_impl.620" = type { %"struct.std::_Head_base.621" }
%"struct.std::_Head_base.621" = type { ptr }
%"struct.std::_Head_base.622" = type { ptr }
%"struct.testing::internal::FlatTupleElemBase.623" = type { %"class.std::tuple.617" }

@.str.344 = private unnamed_addr constant [4 x i8] c"nix\00", align 1
@.str.535 = private unnamed_addr constant [17 x i8] c"nix-0.12pre12876\00", align 1
@.str.536 = private unnamed_addr constant [13 x i8] c"0.12pre12876\00", align 1
@.str.537 = private unnamed_addr constant [19 x i8] c"a-b-c-1234pre5+git\00", align 1
@.str.538 = private unnamed_addr constant [6 x i8] c"a-b-c\00", align 1
@.str.539 = private unnamed_addr constant [13 x i8] c"1234pre5+git\00", align 1

; Function Attrs: mustprogress nounwind uwtable
define linkonce_odr void @_ZNSt10_Head_baseILm2EPKcLb0EEC2ERKS1_(ptr noundef nonnull align 8 dereferenceable(8) %0, ptr noundef nonnull align 8 dereferenceable(8) %1) unnamed_addr #4 comdat align 2 {
  %3 = alloca ptr, align 8
  %4 = alloca ptr, align 8
  store ptr %0, ptr %3, align 8
  store ptr %1, ptr %4, align 8
  %5 = load ptr, ptr %3, align 8
  %6 = getelementptr inbounds %"struct.std::_Head_base.621", ptr %5, i32 0, i32 0
  %7 = load ptr, ptr %4, align 8
  %8 = load ptr, ptr %7, align 8
  store ptr %8, ptr %6, align 8
  ret void
}

; Function Attrs: mustprogress nounwind uwtable
define linkonce_odr void @_ZN7testing8internal17FlatTupleElemBaseINS0_9FlatTupleIJSt5tupleIJPKcS5_S5_EES6_EEELm1EEC2IS6_EENS0_21FlatTupleConstructTagEOT_(ptr noundef nonnull align 8 dereferenceable(24) %0, ptr noundef nonnull align 8 dereferenceable(24) %1) unnamed_addr #4 comdat align 2 {
  %3 = alloca ptr, align 8
  %4 = alloca ptr, align 8
  store ptr %0, ptr %3, align 8
  store ptr %1, ptr %4, align 8
  %5 = load ptr, ptr %3, align 8
  %6 = getelementptr inbounds %"struct.testing::internal::FlatTupleElemBase.623", ptr %5, i32 0, i32 0
  %7 = load ptr, ptr %4, align 8
  call void @_ZNSt5tupleIJPKcS1_S1_EEC2EOS2_(ptr noundef nonnull align 8 dereferenceable(24) %6, ptr noundef nonnull align 8 dereferenceable(24) %7) #3
  ret void
}

; Function Attrs: mustprogress nounwind uwtable
define linkonce_odr void @_ZN7testing8internal17FlatTupleElemBaseINS0_9FlatTupleIJSt5tupleIJPKcS5_S5_EES6_EEELm0EEC2IS6_EENS0_21FlatTupleConstructTagEOT_(ptr noundef nonnull align 8 dereferenceable(24) %0, ptr noundef nonnull align 8 dereferenceable(24) %1) unnamed_addr #4 comdat align 2 {
  %3 = alloca ptr, align 8
  %4 = alloca ptr, align 8
  store ptr %0, ptr %3, align 8
  store ptr %1, ptr %4, align 8
  %5 = load ptr, ptr %3, align 8
  %6 = getelementptr inbounds %"struct.testing::internal::FlatTupleElemBase.616", ptr %5, i32 0, i32 0
  %7 = load ptr, ptr %4, align 8
  call void @_ZNSt5tupleIJPKcS1_S1_EEC2EOS2_(ptr noundef nonnull align 8 dereferenceable(24) %6, ptr noundef nonnull align 8 dereferenceable(24) %7) #3
  ret void
}

; Function Attrs: mustprogress nounwind uwtable
define linkonce_odr void @_ZNSt11_Tuple_implILm2EJPKcEEC2EOS2_(ptr noundef nonnull align 8 dereferenceable(8) %0, ptr noundef nonnull align 8 dereferenceable(8) %1) unnamed_addr #4 comdat align 2 {
  %3 = alloca ptr, align 8
  %4 = alloca ptr, align 8
  store ptr %0, ptr %3, align 8
  store ptr %1, ptr %4, align 8
  %5 = load ptr, ptr %3, align 8
  %6 = load ptr, ptr %4, align 8
  call void @llvm.memcpy.p0.p0.i64(ptr align 8 %5, ptr align 8 %6, i64 8, i1 false)
  ret void
}

; Function Attrs: mustprogress nounwind uwtable
define linkonce_odr void @_ZNSt10_Head_baseILm1EPKcLb0EEC2ERKS1_(ptr noundef nonnull align 8 dereferenceable(8) %0, ptr noundef nonnull align 8 dereferenceable(8) %1) unnamed_addr #4 comdat align 2 {
  %3 = alloca ptr, align 8
  %4 = alloca ptr, align 8
  store ptr %0, ptr %3, align 8
  store ptr %1, ptr %4, align 8
  %5 = load ptr, ptr %3, align 8
  %6 = getelementptr inbounds %"struct.std::_Head_base.622", ptr %5, i32 0, i32 0
  %7 = load ptr, ptr %4, align 8
  %8 = load ptr, ptr %7, align 8
  store ptr %8, ptr %6, align 8
  ret void
}

; Function Attrs: mustprogress uwtable
define linkonce_odr void @_ZNSt11_Tuple_implILm2EJPKcEEC2ERKS1_(ptr noundef nonnull align 8 dereferenceable(8) %0, ptr noundef nonnull align 8 dereferenceable(8) %1) unnamed_addr #5 comdat align 2 {
  %3 = alloca ptr, align 8
  %4 = alloca ptr, align 8
  store ptr %0, ptr %3, align 8
  store ptr %1, ptr %4, align 8
  %5 = load ptr, ptr %3, align 8
  %6 = load ptr, ptr %4, align 8
  call void @_ZNSt10_Head_baseILm2EPKcLb0EEC2ERKS1_(ptr noundef nonnull align 8 dereferenceable(8) %5, ptr noundef nonnull align 8 dereferenceable(8) %6)
  ret void
}

; Function Attrs: mustprogress uwtable
define linkonce_odr void @_ZN7testing8internal13FlatTupleBaseINS0_9FlatTupleIJSt5tupleIJPKcS5_S5_EES6_EEENS0_13IndexSequenceIJLm0ELm1EEEEEC2IJS6_S6_EEENS0_21FlatTupleConstructTagEDpOT_(ptr noundef nonnull align 8 dereferenceable(48) %0, ptr noundef nonnull align 8 dereferenceable(24) %1, ptr noundef nonnull align 8 dereferenceable(24) %2) unnamed_addr #5 comdat align 2 {
  %4 = alloca ptr, align 8
  %5 = alloca ptr, align 8
  %6 = alloca ptr, align 8
  store ptr %0, ptr %4, align 8
  store ptr %1, ptr %5, align 8
  store ptr %2, ptr %6, align 8
  %7 = load ptr, ptr %4, align 8
  %8 = load ptr, ptr %5, align 8
  call void @_ZN7testing8internal17FlatTupleElemBaseINS0_9FlatTupleIJSt5tupleIJPKcS5_S5_EES6_EEELm0EEC2IS6_EENS0_21FlatTupleConstructTagEOT_(ptr noundef nonnull align 8 dereferenceable(24) %7, ptr noundef nonnull align 8 dereferenceable(24) %8)
  %9 = getelementptr inbounds i8, ptr %7, i64 24
  %10 = load ptr, ptr %6, align 8
  call void @_ZN7testing8internal17FlatTupleElemBaseINS0_9FlatTupleIJSt5tupleIJPKcS5_S5_EES6_EEELm1EEC2IS6_EENS0_21FlatTupleConstructTagEOT_(ptr noundef nonnull align 8 dereferenceable(24) %9, ptr noundef nonnull align 8 dereferenceable(24) %10)
  ret void
}

; Function Attrs: mustprogress nounwind uwtable
define linkonce_odr void @_ZNSt11_Tuple_implILm1EJPKcS1_EEC2EOS2_(ptr noundef nonnull align 8 dereferenceable(16) %0, ptr noundef nonnull align 8 dereferenceable(16) %1) unnamed_addr #4 comdat align 2 {
  %3 = alloca ptr, align 8
  %4 = alloca ptr, align 8
  store ptr %0, ptr %3, align 8
  store ptr %1, ptr %4, align 8
  %5 = load ptr, ptr %3, align 8
  %6 = load ptr, ptr %4, align 8
  call void @_ZNSt11_Tuple_implILm2EJPKcEEC2EOS2_(ptr noundef nonnull align 8 dereferenceable(8) %5, ptr noundef nonnull align 8 dereferenceable(8) %6) #3
  %7 = getelementptr inbounds i8, ptr %5, i64 8
  %8 = load ptr, ptr %4, align 8
  %9 = getelementptr inbounds i8, ptr %8, i64 8
  call void @llvm.memcpy.p0.p0.i64(ptr align 8 %7, ptr align 8 %9, i64 8, i1 false)
  ret void
}

; Function Attrs: mustprogress nounwind uwtable
define linkonce_odr void @_ZNSt10_Head_baseILm0EPKcLb0EEC2ERKS1_(ptr noundef nonnull align 8 dereferenceable(8) %0, ptr noundef nonnull align 8 dereferenceable(8) %1) unnamed_addr #4 comdat align 2 {
  %3 = alloca ptr, align 8
  %4 = alloca ptr, align 8
  store ptr %0, ptr %3, align 8
  store ptr %1, ptr %4, align 8
  %5 = load ptr, ptr %3, align 8
  %6 = getelementptr inbounds %"struct.std::_Head_base.139", ptr %5, i32 0, i32 0
  %7 = load ptr, ptr %4, align 8
  %8 = load ptr, ptr %7, align 8
  store ptr %8, ptr %6, align 8
  ret void
}

; Function Attrs: mustprogress uwtable
define linkonce_odr void @_ZNSt11_Tuple_implILm1EJPKcS1_EEC2ERKS1_S4_(ptr noundef nonnull align 8 dereferenceable(16) %0, ptr noundef nonnull align 8 dereferenceable(8) %1, ptr noundef nonnull align 8 dereferenceable(8) %2) unnamed_addr #5 comdat align 2 {
  %4 = alloca ptr, align 8
  %5 = alloca ptr, align 8
  %6 = alloca ptr, align 8
  store ptr %0, ptr %4, align 8
  store ptr %1, ptr %5, align 8
  store ptr %2, ptr %6, align 8
  %7 = load ptr, ptr %4, align 8
  %8 = load ptr, ptr %6, align 8
  call void @_ZNSt11_Tuple_implILm2EJPKcEEC2ERKS1_(ptr noundef nonnull align 8 dereferenceable(8) %7, ptr noundef nonnull align 8 dereferenceable(8) %8)
  %9 = getelementptr inbounds i8, ptr %7, i64 8
  %10 = load ptr, ptr %5, align 8
  call void @_ZNSt10_Head_baseILm1EPKcLb0EEC2ERKS1_(ptr noundef nonnull align 8 dereferenceable(8) %9, ptr noundef nonnull align 8 dereferenceable(8) %10)
  ret void
}

; Function Attrs: mustprogress uwtable
define linkonce_odr void @_ZN7testing8internal9FlatTupleIJSt5tupleIJPKcS4_S4_EES5_EEC2IJS5_S5_EEENS0_21FlatTupleConstructTagEDpOT_(ptr noundef nonnull align 8 dereferenceable(48) %0, ptr noundef nonnull align 8 dereferenceable(24) %1, ptr noundef nonnull align 8 dereferenceable(24) %2) unnamed_addr #5 comdat align 2 {
  %4 = alloca ptr, align 8
  %5 = alloca ptr, align 8
  %6 = alloca ptr, align 8
  store ptr %0, ptr %4, align 8
  store ptr %1, ptr %5, align 8
  store ptr %2, ptr %6, align 8
  %7 = load ptr, ptr %4, align 8
  %8 = load ptr, ptr %5, align 8
  %9 = load ptr, ptr %6, align 8
  call void @_ZN7testing8internal13FlatTupleBaseINS0_9FlatTupleIJSt5tupleIJPKcS5_S5_EES6_EEENS0_13IndexSequenceIJLm0ELm1EEEEEC2IJS6_S6_EEENS0_21FlatTupleConstructTagEDpOT_(ptr noundef nonnull align 8 dereferenceable(48) %7, ptr noundef nonnull align 8 dereferenceable(24) %8, ptr noundef nonnull align 8 dereferenceable(24) %9)
  ret void
}

; Function Attrs: mustprogress nounwind uwtable
define linkonce_odr void @_ZNSt11_Tuple_implILm0EJPKcS1_S1_EEC2EOS2_(ptr noundef nonnull align 8 dereferenceable(24) %0, ptr noundef nonnull align 8 dereferenceable(24) %1) unnamed_addr #4 comdat align 2 {
  %3 = alloca ptr, align 8
  %4 = alloca ptr, align 8
  store ptr %0, ptr %3, align 8
  store ptr %1, ptr %4, align 8
  %5 = load ptr, ptr %3, align 8
  %6 = load ptr, ptr %4, align 8
  call void @_ZNSt11_Tuple_implILm1EJPKcS1_EEC2EOS2_(ptr noundef nonnull align 8 dereferenceable(16) %5, ptr noundef nonnull align 8 dereferenceable(16) %6) #3
  %7 = getelementptr inbounds i8, ptr %5, i64 16
  %8 = load ptr, ptr %4, align 8
  %9 = getelementptr inbounds i8, ptr %8, i64 16
  call void @llvm.memcpy.p0.p0.i64(ptr align 8 %7, ptr align 8 %9, i64 8, i1 false)
  ret void
}

; Function Attrs: noreturn nounwind uwtable
define linkonce_odr hidden void @__clang_call_terminate(ptr noundef %0) #10 comdat {
  %2 = call ptr @__cxa_begin_catch(ptr %0) #3
  call void @_ZSt9terminatev() #24
  unreachable
}

; Function Attrs: mustprogress uwtable
define linkonce_odr void @_ZNSt11_Tuple_implILm0EJPKcS1_S1_EEC2ERKS1_S4_S4_(ptr noundef nonnull align 8 dereferenceable(24) %0, ptr noundef nonnull align 8 dereferenceable(8) %1, ptr noundef nonnull align 8 dereferenceable(8) %2, ptr noundef nonnull align 8 dereferenceable(8) %3) unnamed_addr #5 comdat align 2 {
  %5 = alloca ptr, align 8
  %6 = alloca ptr, align 8
  %7 = alloca ptr, align 8
  %8 = alloca ptr, align 8
  store ptr %0, ptr %5, align 8
  store ptr %1, ptr %6, align 8
  store ptr %2, ptr %7, align 8
  store ptr %3, ptr %8, align 8
  %9 = load ptr, ptr %5, align 8
  %10 = load ptr, ptr %7, align 8
  %11 = load ptr, ptr %8, align 8
  call void @_ZNSt11_Tuple_implILm1EJPKcS1_EEC2ERKS1_S4_(ptr noundef nonnull align 8 dereferenceable(16) %9, ptr noundef nonnull align 8 dereferenceable(8) %10, ptr noundef nonnull align 8 dereferenceable(8) %11)
  %12 = getelementptr inbounds i8, ptr %9, i64 16
  %13 = load ptr, ptr %6, align 8
  call void @_ZNSt10_Head_baseILm0EPKcLb0EEC2ERKS1_(ptr noundef nonnull align 8 dereferenceable(8) %12, ptr noundef nonnull align 8 dereferenceable(8) %13)
  ret void
}

; Function Attrs: mustprogress uwtable
define linkonce_odr void @_ZN7testing8internal10ValueArrayIJSt5tupleIJPKcS4_S4_EES5_EEC2ES5_S5_(ptr noundef nonnull align 8 dereferenceable(48) %0, ptr noundef %1, ptr noundef %2) unnamed_addr #5 comdat align 2 {
  %4 = alloca ptr, align 8
  %5 = alloca ptr, align 8
  %6 = alloca ptr, align 8
  store ptr %0, ptr %4, align 8
  store ptr %1, ptr %5, align 8
  store ptr %2, ptr %6, align 8
  %7 = load ptr, ptr %4, align 8
  %8 = getelementptr inbounds %"class.testing::internal::ValueArray.613", ptr %7, i32 0, i32 0
  call void @_ZN7testing8internal9FlatTupleIJSt5tupleIJPKcS4_S4_EES5_EEC2IJS5_S5_EEENS0_21FlatTupleConstructTagEDpOT_(ptr noundef nonnull align 8 dereferenceable(48) %8, ptr noundef nonnull align 8 dereferenceable(24) %1, ptr noundef nonnull align 8 dereferenceable(24) %2)
  ret void
}

; Function Attrs: mustprogress nounwind uwtable
define linkonce_odr void @_ZNSt5tupleIJPKcS1_S1_EEC2EOS2_(ptr noundef nonnull align 8 dereferenceable(24) %0, ptr noundef nonnull align 8 dereferenceable(24) %1) unnamed_addr #4 comdat align 2 {
  %3 = alloca ptr, align 8
  %4 = alloca ptr, align 8
  store ptr %0, ptr %3, align 8
  store ptr %1, ptr %4, align 8
  %5 = load ptr, ptr %3, align 8
  %6 = load ptr, ptr %4, align 8
  call void @_ZNSt11_Tuple_implILm0EJPKcS1_S1_EEC2EOS2_(ptr noundef nonnull align 8 dereferenceable(24) %5, ptr noundef nonnull align 8 dereferenceable(24) %6) #3
  ret void
}

; Function Attrs: mustprogress nounwind uwtable
define linkonce_odr void @_ZNSt5tupleIJPKcS1_S1_EEC2ILb1ETnNSt9enable_ifIXclsr4_TCCIXT_EEE29__is_implicitly_constructibleIRKS1_S6_S6_EEEbE4typeELb1EEES6_S6_S6_(ptr noundef nonnull align 8 dereferenceable(24) %0, ptr noundef nonnull align 8 dereferenceable(8) %1, ptr noundef nonnull align 8 dereferenceable(8) %2, ptr noundef nonnull align 8 dereferenceable(8) %3) unnamed_addr #4 comdat align 2 personality ptr @__gxx_personality_v0 {
  %5 = alloca ptr, align 8
  %6 = alloca ptr, align 8
  %7 = alloca ptr, align 8
  %8 = alloca ptr, align 8
  store ptr %0, ptr %5, align 8
  store ptr %1, ptr %6, align 8
  store ptr %2, ptr %7, align 8
  store ptr %3, ptr %8, align 8
  %9 = load ptr, ptr %5, align 8
  %10 = load ptr, ptr %6, align 8
  %11 = load ptr, ptr %7, align 8
  %12 = load ptr, ptr %8, align 8
  invoke void @_ZNSt11_Tuple_implILm0EJPKcS1_S1_EEC2ERKS1_S4_S4_(ptr noundef nonnull align 8 dereferenceable(24) %9, ptr noundef nonnull align 8 dereferenceable(8) %10, ptr noundef nonnull align 8 dereferenceable(8) %11, ptr noundef nonnull align 8 dereferenceable(8) %12)
          to label %13 unwind label %14

13:                                               ; preds = %4
  ret void

14:                                               ; preds = %4
  %15 = landingpad { ptr, i32 }
          catch ptr null
  %16 = extractvalue { ptr, i32 } %15, 0
  call void @__clang_call_terminate(ptr %16) #24
  unreachable
}

; Function Attrs: mustprogress uwtable
define linkonce_odr void @_ZN7testing6ValuesIJSt5tupleIJPKcS3_S3_EES4_EEENS_8internal10ValueArrayIJDpT_EEES8_(ptr dead_on_unwind noalias writable sret(%"class.testing::internal::ValueArray.613") align 8 %0, ptr noundef %1, ptr noundef %2) #5 comdat {
  %4 = alloca ptr, align 8
  %5 = alloca ptr, align 8
  %6 = alloca ptr, align 8
  %7 = alloca %"class.std::tuple.617", align 8
  %8 = alloca %"class.std::tuple.617", align 8
  store ptr %0, ptr %4, align 8
  store ptr %1, ptr %5, align 8
  store ptr %2, ptr %6, align 8
  call void @_ZNSt5tupleIJPKcS1_S1_EEC2EOS2_(ptr noundef nonnull align 8 dereferenceable(24) %7, ptr noundef nonnull align 8 dereferenceable(24) %1) #3
  call void @_ZNSt5tupleIJPKcS1_S1_EEC2EOS2_(ptr noundef nonnull align 8 dereferenceable(24) %8, ptr noundef nonnull align 8 dereferenceable(24) %2) #3
  call void @_ZN7testing8internal10ValueArrayIJSt5tupleIJPKcS4_S4_EES5_EEC2ES5_S5_(ptr noundef nonnull align 8 dereferenceable(48) %0, ptr noundef %7, ptr noundef %8)
  ret void
}

; Function Attrs: mustprogress nounwind uwtable
define linkonce_odr void @_ZSt10make_tupleIJRA19_KcRA6_S0_RA13_S0_EESt5tupleIJDpNSt25__strip_reference_wrapperINSt5decayIT_E4typeEE6__typeEEEDpOSA_(ptr dead_on_unwind noalias writable sret(%"class.std::tuple.617") align 8 %0, ptr noundef nonnull align 1 dereferenceable(19) %1, ptr noundef nonnull align 1 dereferenceable(6) %2, ptr noundef nonnull align 1 dereferenceable(13) %3) #4 comdat {
  %5 = alloca ptr, align 8
  %6 = alloca ptr, align 8
  %7 = alloca ptr, align 8
  %8 = alloca ptr, align 8
  %9 = alloca ptr, align 8
  %10 = alloca ptr, align 8
  %11 = alloca ptr, align 8
  store ptr %0, ptr %5, align 8
  store ptr %1, ptr %6, align 8
  store ptr %2, ptr %7, align 8
  store ptr %3, ptr %8, align 8
  %12 = load ptr, ptr %6, align 8
  %13 = getelementptr inbounds [19 x i8], ptr %12, i64 0, i64 0
  store ptr %13, ptr %9, align 8
  %14 = load ptr, ptr %7, align 8
  %15 = getelementptr inbounds [6 x i8], ptr %14, i64 0, i64 0
  store ptr %15, ptr %10, align 8
  %16 = load ptr, ptr %8, align 8
  %17 = getelementptr inbounds [13 x i8], ptr %16, i64 0, i64 0
  store ptr %17, ptr %11, align 8
  call void @_ZNSt5tupleIJPKcS1_S1_EEC2ILb1ETnNSt9enable_ifIXclsr4_TCCIXT_EEE29__is_implicitly_constructibleIRKS1_S6_S6_EEEbE4typeELb1EEES6_S6_S6_(ptr noundef nonnull align 8 dereferenceable(24) %0, ptr noundef nonnull align 8 dereferenceable(8) %9, ptr noundef nonnull align 8 dereferenceable(8) %10, ptr noundef nonnull align 8 dereferenceable(8) %11) #3
  ret void
}

; Function Attrs: mustprogress nounwind uwtable
define linkonce_odr void @_ZSt10make_tupleIJRA17_KcRA4_S0_RA13_S0_EESt5tupleIJDpNSt25__strip_reference_wrapperINSt5decayIT_E4typeEE6__typeEEEDpOSA_(ptr dead_on_unwind noalias writable sret(%"class.std::tuple.617") align 8 %0, ptr noundef nonnull align 1 dereferenceable(17) %1, ptr noundef nonnull align 1 dereferenceable(4) %2, ptr noundef nonnull align 1 dereferenceable(13) %3) #4 comdat {
  %5 = alloca ptr, align 8
  %6 = alloca ptr, align 8
  %7 = alloca ptr, align 8
  %8 = alloca ptr, align 8
  %9 = alloca ptr, align 8
  %10 = alloca ptr, align 8
  %11 = alloca ptr, align 8
  store ptr %0, ptr %5, align 8
  store ptr %1, ptr %6, align 8
  store ptr %2, ptr %7, align 8
  store ptr %3, ptr %8, align 8
  %12 = load ptr, ptr %6, align 8
  %13 = getelementptr inbounds [17 x i8], ptr %12, i64 0, i64 0
  store ptr %13, ptr %9, align 8
  %14 = load ptr, ptr %7, align 8
  %15 = getelementptr inbounds [4 x i8], ptr %14, i64 0, i64 0
  store ptr %15, ptr %10, align 8
  %16 = load ptr, ptr %8, align 8
  %17 = getelementptr inbounds [13 x i8], ptr %16, i64 0, i64 0
  store ptr %17, ptr %11, align 8
  call void @_ZNSt5tupleIJPKcS1_S1_EEC2ILb1ETnNSt9enable_ifIXclsr4_TCCIXT_EEE29__is_implicitly_constructibleIRKS1_S6_S6_EEEbE4typeELb1EEES6_S6_S6_(ptr noundef nonnull align 8 dereferenceable(24) %0, ptr noundef nonnull align 8 dereferenceable(8) %9, ptr noundef nonnull align 8 dereferenceable(8) %10, ptr noundef nonnull align 8 dereferenceable(8) %11) #3
  ret void
}

; Function Attrs: mustprogress uwtable
define internal void @_ZN3nixL55gtest_parseDrvNameParseDrvNamePrimOpTest_EvalGenerator_B5cxx11Ev(ptr dead_on_unwind noalias writable sret(%"class.testing::internal::ParamGenerator.403") align 8 %0) #5 {
  %2 = alloca ptr, align 8
  %3 = alloca %"class.testing::internal::ValueArray.613", align 8
  %4 = alloca %"class.std::tuple.617", align 8
  %5 = alloca %"class.std::tuple.617", align 8
  store ptr %0, ptr %2, align 8
  call void @_ZSt10make_tupleIJRA17_KcRA4_S0_RA13_S0_EESt5tupleIJDpNSt25__strip_reference_wrapperINSt5decayIT_E4typeEE6__typeEEEDpOSA_(ptr dead_on_unwind writable sret(%"class.std::tuple.617") align 8 %4, ptr noundef nonnull align 1 dereferenceable(17) @.str.535, ptr noundef nonnull align 1 dereferenceable(4) @.str.344, ptr noundef nonnull align 1 dereferenceable(13) @.str.536)
  call void @_ZSt10make_tupleIJRA19_KcRA6_S0_RA13_S0_EESt5tupleIJDpNSt25__strip_reference_wrapperINSt5decayIT_E4typeEE6__typeEEEDpOSA_(ptr dead_on_unwind writable sret(%"class.std::tuple.617") align 8 %5, ptr noundef nonnull align 1 dereferenceable(19) @.str.537, ptr noundef nonnull align 1 dereferenceable(6) @.str.538, ptr noundef nonnull align 1 dereferenceable(13) @.str.539)
  call void @_ZN7testing6ValuesIJSt5tupleIJPKcS3_S3_EES4_EEENS_8internal10ValueArrayIJDpT_EEES8_(ptr dead_on_unwind writable sret(%"class.testing::internal::ValueArray.613") align 8 %3, ptr noundef %4, ptr noundef %5)
  call void @_ZNK7testing8internal10ValueArrayIJSt5tupleIJPKcS4_S4_EES5_EEcvNS0_14ParamGeneratorIT_EEIS2_IJNSt7__cxx1112basic_stringIcSt11char_traitsIcESaIcEEESt17basic_string_viewIcSE_ESI_EEEEv(ptr dead_on_unwind writable sret(%"class.testing::internal::ParamGenerator.403") align 8 %0, ptr noundef nonnull align 8 dereferenceable(48) %3)
  ret void
}