; Function Attrs: mustprogress uwtable
define internal void @_ZN3nixL55gtest_parseDrvNameParseDrvNamePrimOpTest_EvalGenerator_B5cxx11Ev(ptr dead_on_unwind noalias writable sret(%"class.testing::internal::ParamGenerator.403") align 8 %0) #4 personality ptr @__gxx_personality_v0 {
  %2 = alloca %"class.testing::internal::ValueArray.613", align 8
  store i64 ptrtoint (ptr @.str.536 to i64), ptr %2, align 8, !alias.scope !513
  %3 = getelementptr inbounds i8, ptr %2, i64 8
  store i64 ptrtoint (ptr @.str.344 to i64), ptr %3, align 8, !alias.scope !513
  %4 = getelementptr inbounds i8, ptr %2, i64 16
  store i64 ptrtoint (ptr @.str.535 to i64), ptr %4, align 8, !alias.scope !513
  %5 = getelementptr inbounds i8, ptr %2, i64 24
  store i64 ptrtoint (ptr @.str.539 to i64), ptr %5, align 8, !alias.scope !513
  %6 = getelementptr inbounds i8, ptr %2, i64 32
  store i64 ptrtoint (ptr @.str.538 to i64), ptr %6, align 8, !alias.scope !513
  %7 = getelementptr inbounds i8, ptr %2, i64 40
  store i64 ptrtoint (ptr @.str.537 to i64), ptr %7, align 8, !alias.scope !513
  call void @_ZNK7testing8internal10ValueArrayIJSt5tupleIJPKcS4_S4_EES5_EEcvNS0_14ParamGeneratorIT_EEIS2_IJNSt7__cxx1112basic_stringIcSt11char_traitsIcESaIcEEESt17basic_string_viewIcSE_ESI_EEEEv(ptr dead_on_unwind writable sret(%"class.testing::internal::ParamGenerator.403") align 8 %0, ptr noundef nonnull align 8 dereferenceable(48) %2)
  ret void
}